target datalayout = "e-m:e-p270:32:32-p271:32:32-p272:64:64-i64:64-i128:128-f80:128-n8:16:32:64-S128"
target triple = "x86_64-pc-linux-gnu"

%struct.b2Vec2 = type { float, float }
%struct.b2JointId = type { i32, i16, i16 }
%struct.b2JointSim = type { i32, i32, i32, i32, %struct.b2Vec2, %struct.b2Vec2, float, float, float, float, %union.anon }
%union.anon = type { %struct.b2PrismaticJoint }
%struct.b2PrismaticJoint = type { %struct.b2Vec2, %struct.b2Vec2, float, float, float, float, float, float, float, float, float, float, float, i32, i32, %struct.b2Vec2, %struct.b2Vec2, %struct.b2Vec2, %struct.b2Vec2, float, float, %struct.b2Softness, i8, i8, i8 }
%struct.b2Softness = type { float, float, float }

; Function Attrs: inlinehint nounwind uwtable
define internal float @b2MaxFloat(float noundef %0, float noundef %1) #3 {
  %3 = alloca float, align 4
  %4 = alloca float, align 4
  store float %0, ptr %3, align 4, !tbaa !13
  store float %1, ptr %4, align 4, !tbaa !13
  %5 = load float, ptr %3, align 4, !tbaa !13
  %6 = load float, ptr %4, align 4, !tbaa !13
  %7 = fcmp ogt float %5, %6
  br i1 %7, label %8, label %10

8:                                                ; preds = %2
  %9 = load float, ptr %3, align 4, !tbaa !13
  br label %12

10:                                               ; preds = %2
  %11 = load float, ptr %4, align 4, !tbaa !13
  br label %12

12:                                               ; preds = %10, %8
  %13 = phi float [ %9, %8 ], [ %11, %10 ]
  ret float %13
}

; Function Attrs: inlinehint nounwind uwtable
define internal float @b2MinFloat(float noundef %0, float noundef %1) #3 {
  %3 = alloca float, align 4
  %4 = alloca float, align 4
  store float %0, ptr %3, align 4, !tbaa !13
  store float %1, ptr %4, align 4, !tbaa !13
  %5 = load float, ptr %3, align 4, !tbaa !13
  %6 = load float, ptr %4, align 4, !tbaa !13
  %7 = fcmp olt float %5, %6
  br i1 %7, label %8, label %10

8:                                                ; preds = %2
  %9 = load float, ptr %3, align 4, !tbaa !13
  br label %12

10:                                               ; preds = %2
  %11 = load float, ptr %4, align 4, !tbaa !13
  br label %12

12:                                               ; preds = %10, %8
  %13 = phi float [ %9, %8 ], [ %11, %10 ]
  ret float %13
}

; Function Attrs: nounwind uwtable
define void @b2PrismaticJoint_SetLimits(i64 %0, float noundef %1, float noundef %2) #0 {
  %4 = alloca %struct.b2JointId, align 4
  %5 = alloca float, align 4
  %6 = alloca float, align 4
  %7 = alloca ptr, align 8
  store i64 %0, ptr %4, align 4
  store float %1, ptr %5, align 4, !tbaa !13
  store float %2, ptr %6, align 4, !tbaa !13
  call void @llvm.lifetime.start.p0(i64 8, ptr %7) #8
  %8 = load i64, ptr %4, align 4
  %9 = call ptr @b2GetJointSimCheckType(i64 %8, i32 noundef 4)
  store ptr %9, ptr %7, align 8, !tbaa !7
  %10 = load float, ptr %5, align 4, !tbaa !13
  %11 = load ptr, ptr %7, align 8, !tbaa !7
  %12 = getelementptr inbounds nuw %struct.b2JointSim, ptr %11, i32 0, i32 10
  %13 = getelementptr inbounds nuw %struct.b2PrismaticJoint, ptr %12, i32 0, i32 11
  %14 = load float, ptr %13, align 4, !tbaa !12
  %15 = fcmp une float %10, %14
  br i1 %15, label %23, label %16

16:                                               ; preds = %3
  %17 = load float, ptr %6, align 4, !tbaa !13
  %18 = load ptr, ptr %7, align 8, !tbaa !7
  %19 = getelementptr inbounds nuw %struct.b2JointSim, ptr %18, i32 0, i32 10
  %20 = getelementptr inbounds nuw %struct.b2PrismaticJoint, ptr %19, i32 0, i32 12
  %21 = load float, ptr %20, align 4, !tbaa !12
  %22 = fcmp une float %17, %21
  br i1 %22, label %23, label %42

23:                                               ; preds = %16, %3
  %24 = load float, ptr %5, align 4, !tbaa !13
  %25 = load float, ptr %6, align 4, !tbaa !13
  %26 = call float @b2MinFloat(float noundef %24, float noundef %25)
  %27 = load ptr, ptr %7, align 8, !tbaa !7
  %28 = getelementptr inbounds nuw %struct.b2JointSim, ptr %27, i32 0, i32 10
  %29 = getelementptr inbounds nuw %struct.b2PrismaticJoint, ptr %28, i32 0, i32 11
  store float %26, ptr %29, align 4, !tbaa !12
  %30 = load float, ptr %5, align 4, !tbaa !13
  %31 = load float, ptr %6, align 4, !tbaa !13
  %32 = call float @b2MaxFloat(float noundef %30, float noundef %31)
  %33 = load ptr, ptr %7, align 8, !tbaa !7
  %34 = getelementptr inbounds nuw %struct.b2JointSim, ptr %33, i32 0, i32 10
  %35 = getelementptr inbounds nuw %struct.b2PrismaticJoint, ptr %34, i32 0, i32 12
  store float %32, ptr %35, align 4, !tbaa !12
  %36 = load ptr, ptr %7, align 8, !tbaa !7
  %37 = getelementptr inbounds nuw %struct.b2JointSim, ptr %36, i32 0, i32 10
  %38 = getelementptr inbounds nuw %struct.b2PrismaticJoint, ptr %37, i32 0, i32 4
  store float 0.000000e+00, ptr %38, align 4, !tbaa !12
  %39 = load ptr, ptr %7, align 8, !tbaa !7
  %40 = getelementptr inbounds nuw %struct.b2JointSim, ptr %39, i32 0, i32 10
  %41 = getelementptr inbounds nuw %struct.b2PrismaticJoint, ptr %40, i32 0, i32 5
  store float 0.000000e+00, ptr %41, align 4, !tbaa !12
  br label %42

42:                                               ; preds = %23, %16
  call void @llvm.lifetime.end.p0(i64 8, ptr %7) #8
  ret void
}